; Function Attrs: mustprogress uwtable
define dso_local void @_ZN3igl6opengl4glfw5imgui11ImGuiPlugin12init_widgetsEv(ptr noundef nonnull align 8 dereferenceable(88) %0) local_unnamed_addr #0 align 2 {
  %2 = getelementptr inbounds nuw i8, ptr %0, i64 64
  %3 = load ptr, ptr %2, align 8, !tbaa !73
  %4 = getelementptr inbounds nuw i8, ptr %0, i64 72
  %5 = load ptr, ptr %4, align 8, !tbaa !73
  %.not7 = icmp eq ptr %3, %5
  br i1 %.not7, label %._crit_edge, label %.lr.ph

.lr.ph:                                           ; preds = %1
  %6 = getelementptr inbounds nuw i8, ptr %0, i64 40
  br label %7

._crit_edge:                                      ; preds = %7, %1
  ret void

7:                                                ; preds = %.lr.ph, %7
  %.sroa.04.08 = phi ptr [ %3, %.lr.ph ], [ %13, %7 ]
  %8 = load ptr, ptr %.sroa.04.08, align 8, !tbaa !74
  %9 = load ptr, ptr %6, align 8, !tbaa !4
  %10 = load ptr, ptr %8, align 8, !tbaa !71
  %11 = getelementptr inbounds nuw i8, ptr %10, i64 16
  %12 = load ptr, ptr %11, align 8
  tail call void %12(ptr noundef nonnull align 8 dereferenceable(56) %8, ptr noundef %9, ptr noundef nonnull %0)
  %13 = getelementptr inbounds nuw i8, ptr %.sroa.04.08, i64 8
  %.not = icmp eq ptr %13, %5
  br i1 %.not, label %._crit_edge, label %7
}